target datalayout = "e-m:e-p270:32:32-p271:32:32-p272:64:64-i64:64-i128:128-f80:128-n8:16:32:64-S128"
target triple = "x86_64-pc-linux-gnu"

%"class.llvm::DWARFDie" = type { ptr, ptr }
%"class.llvm::SmallVectorBase" = type { ptr, i32, i32 }
%"class.llvm::DWARFAbbreviationDeclaration" = type { i32, i16, i8, i8, %"class.llvm::SmallVector.55", %"class.std::optional.60" }
%"class.llvm::SmallVector.55" = type { %"class.llvm::SmallVectorImpl.56", %"struct.llvm::SmallVectorStorage.59" }
%"class.llvm::SmallVectorImpl.56" = type { %"class.llvm::SmallVectorTemplateBase.57" }
%"class.llvm::SmallVectorTemplateBase.57" = type { %"class.llvm::SmallVectorTemplateCommon.58" }
%"class.llvm::SmallVectorTemplateCommon.58" = type { %"class.llvm::SmallVectorBase" }
%"struct.llvm::SmallVectorStorage.59" = type { [128 x i8] }
%"class.std::optional.60" = type { %"struct.std::_Optional_base.61" }
%"struct.std::_Optional_base.61" = type { %"struct.std::_Optional_payload.63" }
%"struct.std::_Optional_payload.63" = type { %"struct.std::_Optional_payload_base.base.65", i8 }
%"struct.std::_Optional_payload_base.base.65" = type { %"union.std::_Optional_payload_base<llvm::DWARFAbbreviationDeclaration::FixedSizeInfo>::_Storage", i8 }
%"union.std::_Optional_payload_base<llvm::DWARFAbbreviationDeclaration::FixedSizeInfo>::_Storage" = type { %"struct.llvm::DWARFAbbreviationDeclaration::FixedSizeInfo" }
%"struct.llvm::DWARFAbbreviationDeclaration::FixedSizeInfo" = type <{ i16, i8, i8, i8, i8 }>
%"class.llvm::DWARFDebugInfoEntry" = type { i64, i32, i32, ptr }

; Function Attrs: mustprogress nounwind uwtable
define linkonce_odr hidden noundef ptr @_ZNK4llvm19DWARFDebugInfoEntry29getAbbreviationDeclarationPtrEv(ptr noundef nonnull align 8 dereferenceable(24) %0) #0 comdat align 2 {
  %2 = alloca ptr, align 8
  store ptr %0, ptr %2, align 8
  %3 = load ptr, ptr %2, align 8
  %4 = getelementptr inbounds nuw %"class.llvm::DWARFDebugInfoEntry", ptr %3, i32 0, i32 3
  %5 = load ptr, ptr %4, align 8
  ret ptr %5
}

; Function Attrs: mustprogress nounwind uwtable
define linkonce_odr hidden noundef zeroext i16 @_ZNK4llvm28DWARFAbbreviationDeclaration6getTagEv(ptr noundef nonnull align 8 dereferenceable(160) %0) #0 comdat align 2 {
  %2 = alloca ptr, align 8
  store ptr %0, ptr %2, align 8
  %3 = load ptr, ptr %2, align 8
  %4 = getelementptr inbounds nuw %"class.llvm::DWARFAbbreviationDeclaration", ptr %3, i32 0, i32 1
  %5 = load i16, ptr %4, align 4
  ret i16 %5
}

; Function Attrs: mustprogress nounwind uwtable
define linkonce_odr hidden noundef ptr @_ZNK4llvm8DWARFDie29getAbbreviationDeclarationPtrEv(ptr noundef nonnull align 8 dereferenceable(16) %0) #0 comdat align 2 {
  %2 = alloca ptr, align 8
  store ptr %0, ptr %2, align 8
  %3 = load ptr, ptr %2, align 8
  %4 = getelementptr inbounds nuw %"class.llvm::DWARFDie", ptr %3, i32 0, i32 1
  %5 = load ptr, ptr %4, align 8
  %6 = call noundef ptr @_ZNK4llvm19DWARFDebugInfoEntry29getAbbreviationDeclarationPtrEv(ptr noundef nonnull align 8 dereferenceable(24) %5)
  ret ptr %6
}

; Function Attrs: mustprogress nounwind uwtable
define linkonce_odr hidden noundef zeroext i1 @_ZNK4llvm8DWARFDie7isValidEv(ptr noundef nonnull align 8 dereferenceable(16) %0) #0 comdat align 2 {
  %2 = alloca ptr, align 8
  store ptr %0, ptr %2, align 8
  %3 = load ptr, ptr %2, align 8
  %4 = getelementptr inbounds nuw %"class.llvm::DWARFDie", ptr %3, i32 0, i32 0
  %5 = load ptr, ptr %4, align 8
  %6 = icmp ne ptr %5, null
  br i1 %6, label %7, label %11

7:                                                ; preds = %1
  %8 = getelementptr inbounds nuw %"class.llvm::DWARFDie", ptr %3, i32 0, i32 1
  %9 = load ptr, ptr %8, align 8
  %10 = icmp ne ptr %9, null
  br label %11

11:                                               ; preds = %7, %1
  %12 = phi i1 [ false, %1 ], [ %10, %7 ]
  ret i1 %12
}

; Function Attrs: mustprogress nounwind uwtable
define internal { ptr, ptr } @_ZN4llvmL21resolveReferencedTypeENS_8DWARFDieENS_5dwarf9AttributeE(ptr %0, ptr %1, i16 noundef zeroext %2) #0 {
  %4 = alloca %"class.llvm::DWARFDie", align 8
  %5 = alloca %"class.llvm::DWARFDie", align 8
  %6 = alloca i16, align 2
  %7 = alloca %"class.llvm::DWARFDie", align 8
  %8 = getelementptr inbounds nuw { ptr, ptr }, ptr %5, i32 0, i32 0
  store ptr %0, ptr %8, align 8
  %9 = getelementptr inbounds nuw { ptr, ptr }, ptr %5, i32 0, i32 1
  store ptr %1, ptr %9, align 8
  store i16 %2, ptr %6, align 2
  %10 = load i16, ptr %6, align 2
  %11 = call { ptr, ptr } @_ZNK4llvm8DWARFDie32getAttributeValueAsReferencedDieENS_5dwarf9AttributeE(ptr noundef nonnull align 8 dereferenceable(16) %5, i16 noundef zeroext %10)
  %12 = getelementptr inbounds nuw { ptr, ptr }, ptr %7, i32 0, i32 0
  %13 = extractvalue { ptr, ptr } %11, 0
  store ptr %13, ptr %12, align 8
  %14 = getelementptr inbounds nuw { ptr, ptr }, ptr %7, i32 0, i32 1
  %15 = extractvalue { ptr, ptr } %11, 1
  store ptr %15, ptr %14, align 8
  %16 = call { ptr, ptr } @_ZNK4llvm8DWARFDie24resolveTypeUnitReferenceEv(ptr noundef nonnull align 8 dereferenceable(16) %7)
  %17 = getelementptr inbounds nuw { ptr, ptr }, ptr %4, i32 0, i32 0
  %18 = extractvalue { ptr, ptr } %16, 0
  store ptr %18, ptr %17, align 8
  %19 = getelementptr inbounds nuw { ptr, ptr }, ptr %4, i32 0, i32 1
  %20 = extractvalue { ptr, ptr } %16, 1
  store ptr %20, ptr %19, align 8
  %21 = load { ptr, ptr }, ptr %4, align 8
  ret { ptr, ptr } %21
}

; Function Attrs: mustprogress nounwind uwtable
define linkonce_odr hidden noundef zeroext i16 @_ZNK4llvm8DWARFDie6getTagEv(ptr noundef nonnull align 8 dereferenceable(16) %0) #0 comdat align 2 {
  %2 = alloca i16, align 2
  %3 = alloca ptr, align 8
  %4 = alloca ptr, align 8
  store ptr %0, ptr %3, align 8
  %5 = load ptr, ptr %3, align 8
  %6 = call noundef ptr @_ZNK4llvm8DWARFDie29getAbbreviationDeclarationPtrEv(ptr noundef nonnull align 8 dereferenceable(16) %5)
  store ptr %6, ptr %4, align 8
  %7 = load ptr, ptr %4, align 8
  %8 = icmp ne ptr %7, null
  br i1 %8, label %9, label %12

9:                                                ; preds = %1
  %10 = load ptr, ptr %4, align 8
  %11 = call noundef zeroext i16 @_ZNK4llvm28DWARFAbbreviationDeclaration6getTagEv(ptr noundef nonnull align 8 dereferenceable(160) %10)
  store i16 %11, ptr %2, align 2
  br label %13

12:                                               ; preds = %1
  store i16 0, ptr %2, align 2
  br label %13

13:                                               ; preds = %12, %9
  %14 = load i16, ptr %2, align 2
  ret i16 %14
}

; Function Attrs: mustprogress nounwind uwtable
define linkonce_odr hidden noundef zeroext i1 @_ZNK4llvm8DWARFDiecvbEv(ptr noundef nonnull align 8 dereferenceable(16) %0) #0 comdat align 2 {
  %2 = alloca ptr, align 8
  store ptr %0, ptr %2, align 8
  %3 = load ptr, ptr %2, align 8
  %4 = call noundef zeroext i1 @_ZNK4llvm8DWARFDie7isValidEv(ptr noundef nonnull align 8 dereferenceable(16) %3)
  ret i1 %4
}

; Function Attrs: mustprogress nounwind uwtable
define linkonce_odr hidden void @_ZN4llvm8DWARFDieC2Ev(ptr noundef nonnull align 8 dereferenceable(16) %0) unnamed_addr #0 comdat align 2 {
  %2 = alloca ptr, align 8
  store ptr %0, ptr %2, align 8
  %3 = load ptr, ptr %2, align 8
  %4 = getelementptr inbounds nuw %"class.llvm::DWARFDie", ptr %3, i32 0, i32 0
  store ptr null, ptr %4, align 8
  %5 = getelementptr inbounds nuw %"class.llvm::DWARFDie", ptr %3, i32 0, i32 1
  store ptr null, ptr %5, align 8
  ret void
}

; Function Attrs: mustprogress nounwind uwtable
define dso_local void @_ZN4llvm16DWARFTypePrinter33appendConstVolatileQualifierAfterENS_8DWARFDieE(ptr noundef nonnull align 8 dereferenceable(10) %0, ptr %1, ptr %2) #0 align 2 {
  %4 = alloca %"class.llvm::DWARFDie", align 8
  %5 = alloca ptr, align 8
  %6 = alloca %"class.llvm::DWARFDie", align 8
  %7 = alloca %"class.llvm::DWARFDie", align 8
  %8 = alloca %"class.llvm::DWARFDie", align 8
  %9 = alloca %"class.llvm::DWARFDie", align 8
  %10 = alloca %"class.llvm::DWARFDie", align 8
  %11 = alloca %"class.llvm::DWARFDie", align 8
  %12 = alloca %"class.llvm::DWARFDie", align 8
  %13 = alloca %"class.llvm::DWARFDie", align 8
  %14 = alloca %"class.llvm::DWARFDie", align 8
  %15 = getelementptr inbounds nuw { ptr, ptr }, ptr %4, i32 0, i32 0
  store ptr %1, ptr %15, align 8
  %16 = getelementptr inbounds nuw { ptr, ptr }, ptr %4, i32 0, i32 1
  store ptr %2, ptr %16, align 8
  store ptr %0, ptr %5, align 8
  %17 = load ptr, ptr %5, align 8
  call void @_ZN4llvm8DWARFDieC2Ev(ptr noundef nonnull align 8 dereferenceable(16) %6) #10
  call void @_ZN4llvm8DWARFDieC2Ev(ptr noundef nonnull align 8 dereferenceable(16) %7) #10
  call void @_ZN4llvm8DWARFDieC2Ev(ptr noundef nonnull align 8 dereferenceable(16) %8) #10
  call void @_ZN4llvm16DWARFTypePrinter22decomposeConstVolatileERNS_8DWARFDieES2_S2_S2_(ptr noundef nonnull align 8 dereferenceable(10) %17, ptr noundef nonnull align 8 dereferenceable(16) %4, ptr noundef nonnull align 8 dereferenceable(16) %8, ptr noundef nonnull align 8 dereferenceable(16) %6, ptr noundef nonnull align 8 dereferenceable(16) %7)
  %18 = call noundef zeroext i1 @_ZNK4llvm8DWARFDiecvbEv(ptr noundef nonnull align 8 dereferenceable(16) %8)
  br i1 %18, label %19, label %43

19:                                               ; preds = %3
  %20 = call noundef zeroext i16 @_ZNK4llvm8DWARFDie6getTagEv(ptr noundef nonnull align 8 dereferenceable(16) %8)
  %21 = zext i16 %20 to i32
  %22 = icmp eq i32 %21, 21
  br i1 %22, label %23, label %43

23:                                               ; preds = %19
  call void @llvm.memcpy.p0.p0.i64(ptr align 8 %9, ptr align 8 %8, i64 16, i1 false)
  call void @llvm.memcpy.p0.p0.i64(ptr align 8 %11, ptr align 8 %8, i64 16, i1 false)
  %24 = getelementptr inbounds nuw { ptr, ptr }, ptr %11, i32 0, i32 0
  %25 = load ptr, ptr %24, align 8
  %26 = getelementptr inbounds nuw { ptr, ptr }, ptr %11, i32 0, i32 1
  %27 = load ptr, ptr %26, align 8
  %28 = call { ptr, ptr } @_ZN4llvmL21resolveReferencedTypeENS_8DWARFDieENS_5dwarf9AttributeE(ptr %25, ptr %27, i16 noundef zeroext 73)
  %29 = getelementptr inbounds nuw { ptr, ptr }, ptr %10, i32 0, i32 0
  %30 = extractvalue { ptr, ptr } %28, 0
  store ptr %30, ptr %29, align 8
  %31 = getelementptr inbounds nuw { ptr, ptr }, ptr %10, i32 0, i32 1
  %32 = extractvalue { ptr, ptr } %28, 1
  store ptr %32, ptr %31, align 8
  %33 = call noundef zeroext i1 @_ZNK4llvm8DWARFDie7isValidEv(ptr noundef nonnull align 8 dereferenceable(16) %6)
  %34 = call noundef zeroext i1 @_ZNK4llvm8DWARFDie7isValidEv(ptr noundef nonnull align 8 dereferenceable(16) %7)
  %35 = getelementptr inbounds nuw { ptr, ptr }, ptr %9, i32 0, i32 0
  %36 = load ptr, ptr %35, align 8
  %37 = getelementptr inbounds nuw { ptr, ptr }, ptr %9, i32 0, i32 1
  %38 = load ptr, ptr %37, align 8
  %39 = getelementptr inbounds nuw { ptr, ptr }, ptr %10, i32 0, i32 0
  %40 = load ptr, ptr %39, align 8
  %41 = getelementptr inbounds nuw { ptr, ptr }, ptr %10, i32 0, i32 1
  %42 = load ptr, ptr %41, align 8
  call void @_ZN4llvm16DWARFTypePrinter25appendSubroutineNameAfterENS_8DWARFDieES1_bbb(ptr noundef nonnull align 8 dereferenceable(10) %17, ptr %36, ptr %38, ptr %40, ptr %42, i1 noundef zeroext false, i1 noundef zeroext %33, i1 noundef zeroext %34)
  br label %61

43:                                               ; preds = %19, %3
  call void @llvm.memcpy.p0.p0.i64(ptr align 8 %12, ptr align 8 %8, i64 16, i1 false)
  call void @llvm.memcpy.p0.p0.i64(ptr align 8 %14, ptr align 8 %8, i64 16, i1 false)
  %44 = getelementptr inbounds nuw { ptr, ptr }, ptr %14, i32 0, i32 0
  %45 = load ptr, ptr %44, align 8
  %46 = getelementptr inbounds nuw { ptr, ptr }, ptr %14, i32 0, i32 1
  %47 = load ptr, ptr %46, align 8
  %48 = call { ptr, ptr } @_ZN4llvmL21resolveReferencedTypeENS_8DWARFDieENS_5dwarf9AttributeE(ptr %45, ptr %47, i16 noundef zeroext 73)
  %49 = getelementptr inbounds nuw { ptr, ptr }, ptr %13, i32 0, i32 0
  %50 = extractvalue { ptr, ptr } %48, 0
  store ptr %50, ptr %49, align 8
  %51 = getelementptr inbounds nuw { ptr, ptr }, ptr %13, i32 0, i32 1
  %52 = extractvalue { ptr, ptr } %48, 1
  store ptr %52, ptr %51, align 8
  %53 = getelementptr inbounds nuw { ptr, ptr }, ptr %12, i32 0, i32 0
  %54 = load ptr, ptr %53, align 8
  %55 = getelementptr inbounds nuw { ptr, ptr }, ptr %12, i32 0, i32 1
  %56 = load ptr, ptr %55, align 8
  %57 = getelementptr inbounds nuw { ptr, ptr }, ptr %13, i32 0, i32 0
  %58 = load ptr, ptr %57, align 8
  %59 = getelementptr inbounds nuw { ptr, ptr }, ptr %13, i32 0, i32 1
  %60 = load ptr, ptr %59, align 8
  call void @_ZN4llvm16DWARFTypePrinter26appendUnqualifiedNameAfterENS_8DWARFDieES1_b(ptr noundef nonnull align 8 dereferenceable(10) %17, ptr %54, ptr %56, ptr %58, ptr %60, i1 noundef zeroext false)
  br label %61

61:                                               ; preds = %43, %23
  ret void
}