; Function Attrs: mustprogress nounwind uwtable
define dso_local void @_ZN4llvm16DWARFTypePrinter33appendConstVolatileQualifierAfterENS_8DWARFDieE(ptr noundef nonnull align 8 captures(none) dereferenceable(10) %0, ptr %1, ptr %2) local_unnamed_addr #0 align 2 {
  %4 = alloca %"class.llvm::DWARFDie", align 8
  %5 = alloca %"class.llvm::DWARFDie", align 8
  %6 = alloca %"class.llvm::DWARFDie", align 8
  %7 = alloca %"class.llvm::DWARFDie", align 8
  %8 = alloca %"class.llvm::DWARFDie", align 8
  %9 = alloca %"class.llvm::DWARFDie", align 8
  %10 = alloca %"class.llvm::DWARFDie", align 8
  %11 = alloca %"class.llvm::DWARFDie", align 8
  store ptr %1, ptr %8, align 8
  %12 = getelementptr inbounds nuw i8, ptr %8, i64 8
  store ptr %2, ptr %12, align 8
  call void @llvm.memset.p0.i64(ptr noundef nonnull align 8 dereferenceable(16) %9, i8 0, i64 16, i1 false)
  call void @llvm.memset.p0.i64(ptr noundef nonnull align 8 dereferenceable(16) %10, i8 0, i64 16, i1 false)
  call void @_ZN4llvm16DWARFTypePrinter22decomposeConstVolatileERNS_8DWARFDieES2_S2_S2_(ptr nonnull align 8 poison, ptr noundef nonnull align 8 dereferenceable(16) %8, ptr noundef nonnull align 8 dereferenceable(16) %11, ptr noundef nonnull align 8 dereferenceable(16) %9, ptr noundef nonnull align 8 dereferenceable(16) %10)
  %13 = load ptr, ptr %11, align 8
  %.not.i.i = icmp ne ptr %13, null
  %14 = getelementptr inbounds nuw i8, ptr %11, i64 8
  %15 = load ptr, ptr %14, align 8
  %16 = icmp ne ptr %15, null
  %17 = select i1 %.not.i.i, i1 %16, i1 false
  br i1 %17, label %18, label %_ZNK4llvm8DWARFDie6getTagEv.exit.thread

18:                                               ; preds = %3
  %19 = getelementptr inbounds nuw i8, ptr %15, i64 16
  %20 = load ptr, ptr %19, align 8
  %.not.i = icmp eq ptr %20, null
  br i1 %.not.i, label %_ZNK4llvm8DWARFDie6getTagEv.exit.thread, label %_ZNK4llvm8DWARFDie6getTagEv.exit

_ZNK4llvm8DWARFDie6getTagEv.exit:                 ; preds = %18
  %21 = getelementptr inbounds nuw i8, ptr %20, i64 4
  %22 = load i16, ptr %21, align 4
  %23 = icmp eq i16 %22, 21
  br i1 %23, label %24, label %_ZNK4llvm8DWARFDie6getTagEv.exit.thread

24:                                               ; preds = %_ZNK4llvm8DWARFDie6getTagEv.exit
  call void @llvm.lifetime.start.p0(i64 16, ptr nonnull %6)
  call void @llvm.lifetime.start.p0(i64 16, ptr nonnull %7)
  store ptr %13, ptr %6, align 8
  %25 = getelementptr inbounds nuw i8, ptr %6, i64 8
  store ptr %15, ptr %25, align 8
  %26 = call { ptr, ptr } @_ZNK4llvm8DWARFDie32getAttributeValueAsReferencedDieENS_5dwarf9AttributeE(ptr noundef nonnull align 8 dereferenceable(16) %6, i16 noundef zeroext 73) #16
  %27 = extractvalue { ptr, ptr } %26, 0
  store ptr %27, ptr %7, align 8
  %28 = getelementptr inbounds nuw i8, ptr %7, i64 8
  %29 = extractvalue { ptr, ptr } %26, 1
  store ptr %29, ptr %28, align 8
  %30 = call { ptr, ptr } @_ZNK4llvm8DWARFDie24resolveTypeUnitReferenceEv(ptr noundef nonnull align 8 dereferenceable(16) %7) #16
  call void @llvm.lifetime.end.p0(i64 16, ptr nonnull %6)
  call void @llvm.lifetime.end.p0(i64 16, ptr nonnull %7)
  %31 = extractvalue { ptr, ptr } %30, 0
  %32 = extractvalue { ptr, ptr } %30, 1
  %33 = load ptr, ptr %9, align 8
  %.not.i11 = icmp ne ptr %33, null
  %34 = getelementptr inbounds nuw i8, ptr %9, i64 8
  %35 = load ptr, ptr %34, align 8
  %36 = icmp ne ptr %35, null
  %37 = select i1 %.not.i11, i1 %36, i1 false
  %38 = load ptr, ptr %10, align 8
  %.not.i12 = icmp ne ptr %38, null
  %39 = getelementptr inbounds nuw i8, ptr %10, i64 8
  %40 = load ptr, ptr %39, align 8
  %41 = icmp ne ptr %40, null
  %42 = select i1 %.not.i12, i1 %41, i1 false
  call void @_ZN4llvm16DWARFTypePrinter25appendSubroutineNameAfterENS_8DWARFDieES1_bbb(ptr noundef nonnull align 8 dereferenceable(10) %0, ptr nonnull %13, ptr nonnull %15, ptr %31, ptr %32, i1 noundef zeroext false, i1 noundef zeroext %37, i1 noundef zeroext %42)
  br label %51

_ZNK4llvm8DWARFDie6getTagEv.exit.thread:          ; preds = %18, %_ZNK4llvm8DWARFDie6getTagEv.exit, %3
  call void @llvm.lifetime.start.p0(i64 16, ptr nonnull %4)
  call void @llvm.lifetime.start.p0(i64 16, ptr nonnull %5)
  store ptr %13, ptr %4, align 8
  %43 = getelementptr inbounds nuw i8, ptr %4, i64 8
  store ptr %15, ptr %43, align 8
  %44 = call { ptr, ptr } @_ZNK4llvm8DWARFDie32getAttributeValueAsReferencedDieENS_5dwarf9AttributeE(ptr noundef nonnull align 8 dereferenceable(16) %4, i16 noundef zeroext 73) #16
  %45 = extractvalue { ptr, ptr } %44, 0
  store ptr %45, ptr %5, align 8
  %46 = getelementptr inbounds nuw i8, ptr %5, i64 8
  %47 = extractvalue { ptr, ptr } %44, 1
  store ptr %47, ptr %46, align 8
  %48 = call { ptr, ptr } @_ZNK4llvm8DWARFDie24resolveTypeUnitReferenceEv(ptr noundef nonnull align 8 dereferenceable(16) %5) #16
  call void @llvm.lifetime.end.p0(i64 16, ptr nonnull %4)
  call void @llvm.lifetime.end.p0(i64 16, ptr nonnull %5)
  %49 = extractvalue { ptr, ptr } %48, 0
  %50 = extractvalue { ptr, ptr } %48, 1
  call void @_ZN4llvm16DWARFTypePrinter26appendUnqualifiedNameAfterENS_8DWARFDieES1_b(ptr noundef nonnull align 8 dereferenceable(10) %0, ptr %13, ptr %15, ptr %49, ptr %50, i1 noundef zeroext false)
  br label %51

51:                                               ; preds = %_ZNK4llvm8DWARFDie6getTagEv.exit.thread, %24
  ret void
}